; Function Attrs: mustprogress uwtable
define hidden void @_ZN3fmt3v114file3dupEi(ptr dead_on_unwind noalias writable writeonly sret(%"class.fmt::v11::file") align 4 captures(none) %0, i32 noundef %1) local_unnamed_addr #5 align 2 personality ptr @__gxx_personality_v0 {
  %3 = alloca i32, align 4
  store i32 %1, ptr %3, align 4, !tbaa !10
  %4 = tail call i32 @dup(i32 noundef %1) #32
  %5 = icmp eq i32 %4, -1
  br i1 %5, label %6, label %13

6:                                                ; preds = %2
  %7 = tail call ptr @__cxa_allocate_exception(i64 32) #32
  %8 = tail call ptr @__errno_location() #31
  %9 = load i32, ptr %8, align 4, !tbaa !10
  invoke void @_ZN3fmt3v1112system_errorIJRiEEESt12system_erroriNS0_7fstringIJDpT_EE1tEDpOS5_(ptr dead_on_unwind writable sret(%"class.std::system_error") align 8 %7, i32 noundef %9, ptr nonnull @.str.51, i64 35, ptr noundef nonnull align 4 dereferenceable(4) %3)
          to label %10 unwind label %11

10:                                               ; preds = %6
  call void @__cxa_throw(ptr %7, ptr nonnull @_ZTISt12system_error, ptr nonnull @_ZNSt12system_errorD1Ev) #35
  unreachable

11:                                               ; preds = %6
  %12 = landingpad { ptr, i32 }
          cleanup
  call void @__cxa_free_exception(ptr %7) #32
  resume { ptr, i32 } %12

13:                                               ; preds = %2
  store i32 %4, ptr %0, align 4, !tbaa !34
  ret void
}